; Function Attrs: nounwind uwtable
define ptr @Hop_CreateAnd(ptr noundef %0, i32 noundef %1) local_unnamed_addr #0 {
  %3 = getelementptr i8, ptr %0, i64 24
  %.val = load ptr, ptr %3, align 8, !tbaa !20
  %4 = icmp sgt i32 %1, 0
  br i1 %4, label %.lr.ph, label %._crit_edge

.lr.ph:                                           ; preds = %2
  %5 = getelementptr i8, ptr %0, i64 80
  %6 = getelementptr inbounds nuw i8, ptr %0, i64 64
  %7 = getelementptr inbounds nuw i8, ptr %0, i64 48
  %8 = getelementptr inbounds nuw i8, ptr %0, i64 56
  %9 = getelementptr inbounds nuw i8, ptr %0, i64 32
  %wide.trip.count = zext nneg i32 %1 to i64
  br label %10

10:                                               ; preds = %.lr.ph, %Hop_And.exit
  %indvars.iv = phi i64 [ 0, %.lr.ph ], [ %indvars.iv.next, %Hop_And.exit ]
  %.089 = phi ptr [ %.val, %.lr.ph ], [ %.0.i, %Hop_And.exit ]
  %.val.i = load i32, ptr %5, align 8, !tbaa !3
  %11 = sext i32 %.val.i to i64
  %.not8.i = icmp slt i64 %indvars.iv, %11
  br i1 %.not8.i, label %Hop_IthVar.exit, label %.lr.ph.i

.lr.ph.i:                                         ; preds = %10, %.lr.ph.i
  %.09.i = phi i32 [ %13, %.lr.ph.i ], [ %.val.i, %10 ]
  %12 = tail call ptr @Hop_ObjCreatePi(ptr noundef %0) #2
  %13 = add i32 %.09.i, 1
  %14 = zext i32 %.09.i to i64
  %exitcond.not.i = icmp eq i64 %indvars.iv, %14
  br i1 %exitcond.not.i, label %Hop_IthVar.exit, label %.lr.ph.i, !llvm.loop !7

Hop_IthVar.exit:                                  ; preds = %.lr.ph.i, %10
  %.val7.i = load ptr, ptr %0, align 8, !tbaa !9
  %15 = getelementptr i8, ptr %.val7.i, i64 8
  %.val7.val.i = load ptr, ptr %15, align 8, !tbaa !17
  %16 = getelementptr inbounds nuw ptr, ptr %.val7.val.i, i64 %indvars.iv
  %17 = load ptr, ptr %16, align 8, !tbaa !19
  %18 = icmp eq ptr %.089, %17
  br i1 %18, label %Hop_And.exit, label %19

19:                                               ; preds = %Hop_IthVar.exit
  %20 = ptrtoint ptr %17 to i64
  %21 = xor i64 %20, 1
  %22 = inttoptr i64 %21 to ptr
  %23 = icmp eq ptr %.089, %22
  br i1 %23, label %24, label %29

24:                                               ; preds = %19
  %25 = load ptr, ptr %3, align 8, !tbaa !20
  %26 = ptrtoint ptr %25 to i64
  %27 = xor i64 %26, 1
  %28 = inttoptr i64 %27 to ptr
  br label %Hop_And.exit

29:                                               ; preds = %19
  %30 = ptrtoint ptr %.089 to i64
  %31 = and i64 %30, -2
  %32 = inttoptr i64 %31 to ptr
  %33 = load ptr, ptr %3, align 8, !tbaa !20
  %34 = icmp eq ptr %33, %32
  br i1 %34, label %35, label %40

35:                                               ; preds = %29
  %36 = icmp eq ptr %.089, %32
  br i1 %36, label %Hop_And.exit, label %37

37:                                               ; preds = %35
  %38 = or i64 %30, 1
  %39 = inttoptr i64 %38 to ptr
  br label %Hop_And.exit

40:                                               ; preds = %29
  %41 = and i64 %20, -2
  %42 = inttoptr i64 %41 to ptr
  %43 = icmp eq ptr %33, %42
  br i1 %43, label %44, label %50

44:                                               ; preds = %40
  %45 = icmp eq ptr %17, %33
  br i1 %45, label %Hop_And.exit, label %46

46:                                               ; preds = %44
  %47 = ptrtoint ptr %33 to i64
  %48 = xor i64 %47, 1
  %49 = inttoptr i64 %48 to ptr
  br label %Hop_And.exit

50:                                               ; preds = %40
  %51 = load i32, ptr %6, align 8
  %52 = and i32 %51, -8
  %53 = or disjoint i32 %52, 4
  store i32 %53, ptr %6, align 8
  %54 = getelementptr inbounds nuw i8, ptr %32, i64 36
  %55 = load i32, ptr %54, align 4, !tbaa !21
  %56 = getelementptr inbounds nuw i8, ptr %42, i64 36
  %57 = load i32, ptr %56, align 4, !tbaa !21
  %58 = icmp slt i32 %55, %57
  %spec.select.i.i = select i1 %58, ptr %.089, ptr %17
  %spec.select14.i.i = select i1 %58, ptr %17, ptr %.089
  store ptr %spec.select.i.i, ptr %7, align 8, !tbaa !22
  store ptr %spec.select14.i.i, ptr %8, align 8, !tbaa !23
  %59 = tail call ptr @Hop_TableLookup(ptr noundef nonnull %0, ptr noundef nonnull %9) #2
  %.not.i = icmp eq ptr %59, null
  br i1 %.not.i, label %60, label %Hop_And.exit

60:                                               ; preds = %50
  %61 = tail call ptr @Hop_ObjCreate(ptr noundef nonnull %0, ptr noundef nonnull %9) #2
  br label %Hop_And.exit

Hop_And.exit:                                     ; preds = %Hop_IthVar.exit, %24, %35, %37, %44, %46, %50, %60
  %.0.i = phi ptr [ %28, %24 ], [ %61, %60 ], [ %.089, %Hop_IthVar.exit ], [ %39, %37 ], [ %17, %35 ], [ %49, %46 ], [ %.089, %44 ], [ %59, %50 ]
  %indvars.iv.next = add nuw nsw i64 %indvars.iv, 1
  %exitcond.not = icmp eq i64 %indvars.iv.next, %wide.trip.count
  br i1 %exitcond.not, label %._crit_edge, label %10, !llvm.loop !27

._crit_edge:                                      ; preds = %Hop_And.exit, %2
  %.08.lcssa = phi ptr [ %.val, %2 ], [ %.0.i, %Hop_And.exit ]
  ret ptr %.08.lcssa
}